target datalayout = "e-m:e-p270:32:32-p271:32:32-p272:64:64-i64:64-i128:128-f80:128-n8:16:32:64-S128"
target triple = "x86_64-unknown-linux-gnu"

@.str.572 = private unnamed_addr constant [7 x i8] c"/proc/\00", align 1
@.str.612 = private unnamed_addr constant [6 x i8] c"self/\00", align 1
@.str.613 = private unnamed_addr constant [4 x i8] c"%d/\00", align 1

; Function Attrs: nounwind sspstrong uwtable
define internal i32 @is_proc_myself(ptr noundef %filename, ptr noundef %entry1) #0 {
entry:
  %retval = alloca i32, align 4
  %filename.addr = alloca ptr, align 8
  %entry.addr = alloca ptr, align 8
  %myself = alloca [80 x i8], align 16
  store ptr %filename, ptr %filename.addr, align 8
  store ptr %entry1, ptr %entry.addr, align 8
  %0 = load ptr, ptr %filename.addr, align 8
  %call = call i32 @strncmp(ptr noundef %0, ptr noundef @.str.572, i64 noundef 6) #18
  %tobool = icmp ne i32 %call, 0
  br i1 %tobool, label %if.end30, label %if.then

if.then:                                          ; preds = %entry
  %1 = load ptr, ptr %filename.addr, align 8
  %add.ptr = getelementptr i8, ptr %1, i64 6
  store ptr %add.ptr, ptr %filename.addr, align 8
  %2 = load ptr, ptr %filename.addr, align 8
  %call2 = call i32 @strncmp(ptr noundef %2, ptr noundef @.str.612, i64 noundef 5) #18
  %tobool3 = icmp ne i32 %call2, 0
  br i1 %tobool3, label %if.else, label %if.then4

if.then4:                                         ; preds = %if.then
  %3 = load ptr, ptr %filename.addr, align 8
  %add.ptr5 = getelementptr i8, ptr %3, i64 5
  store ptr %add.ptr5, ptr %filename.addr, align 8
  br label %if.end25

if.else:                                          ; preds = %if.then
  %4 = load ptr, ptr %filename.addr, align 8
  %5 = load i8, ptr %4, align 1
  %conv = sext i8 %5 to i32
  %cmp = icmp sge i32 %conv, 49
  br i1 %cmp, label %land.lhs.true, label %if.else23

land.lhs.true:                                    ; preds = %if.else
  %6 = load ptr, ptr %filename.addr, align 8
  %7 = load i8, ptr %6, align 1
  %conv7 = sext i8 %7 to i32
  %cmp8 = icmp sle i32 %conv7, 57
  br i1 %cmp8, label %if.then10, label %if.else23

if.then10:                                        ; preds = %land.lhs.true
  %arraydecay = getelementptr inbounds [80 x i8], ptr %myself, i64 0, i64 0
  %call11 = call i32 @getpid() #14
  %call12 = call i32 (ptr, i64, ptr, ...) @snprintf(ptr noundef %arraydecay, i64 noundef 80, ptr noundef @.str.613, i32 noundef %call11) #14
  %8 = load ptr, ptr %filename.addr, align 8
  %arraydecay13 = getelementptr inbounds [80 x i8], ptr %myself, i64 0, i64 0
  %arraydecay14 = getelementptr inbounds [80 x i8], ptr %myself, i64 0, i64 0
  %call15 = call i64 @strlen(ptr noundef %arraydecay14) #18
  %call16 = call i32 @strncmp(ptr noundef %8, ptr noundef %arraydecay13, i64 noundef %call15) #18
  %tobool17 = icmp ne i32 %call16, 0
  br i1 %tobool17, label %if.else22, label %if.then18

if.then18:                                        ; preds = %if.then10
  %arraydecay19 = getelementptr inbounds [80 x i8], ptr %myself, i64 0, i64 0
  %call20 = call i64 @strlen(ptr noundef %arraydecay19) #18
  %9 = load ptr, ptr %filename.addr, align 8
  %add.ptr21 = getelementptr i8, ptr %9, i64 %call20
  store ptr %add.ptr21, ptr %filename.addr, align 8
  br label %if.end

if.else22:                                        ; preds = %if.then10
  store i32 0, ptr %retval, align 4
  br label %return

if.end:                                           ; preds = %if.then18
  br label %if.end24

if.else23:                                        ; preds = %land.lhs.true, %if.else
  store i32 0, ptr %retval, align 4
  br label %return

if.end24:                                         ; preds = %if.end
  br label %if.end25

if.end25:                                         ; preds = %if.end24, %if.then4
  %10 = load ptr, ptr %filename.addr, align 8
  %11 = load ptr, ptr %entry.addr, align 8
  %call26 = call i32 @strcmp(ptr noundef %10, ptr noundef %11) #18
  %tobool27 = icmp ne i32 %call26, 0
  br i1 %tobool27, label %if.end29, label %if.then28

if.then28:                                        ; preds = %if.end25
  store i32 1, ptr %retval, align 4
  br label %return

if.end29:                                         ; preds = %if.end25
  br label %if.end30

if.end30:                                         ; preds = %if.end29, %entry
  store i32 0, ptr %retval, align 4
  br label %return

return:                                           ; preds = %if.end30, %if.then28, %if.else23, %if.else22
  %12 = load i32, ptr %retval, align 4
  ret i32 %12
}