; Function Attrs: nounwind sspstrong uwtable
define internal range(i32 0, 2) i32 @is_proc_myself(ptr noundef readonly captures(none) %filename, ptr noundef readonly captures(none) %entry1) #2 {
entry:
  %myself = alloca [80 x i8], align 16
  %call = tail call i32 @strncmp(ptr noundef nonnull dereferenceable(1) %filename, ptr noundef nonnull dereferenceable(7) @.str.572, i64 noundef 6) #31
  %tobool.not = icmp eq i32 %call, 0
  br i1 %tobool.not, label %if.then, label %if.end30

if.then:                                          ; preds = %entry
  %add.ptr = getelementptr i8, ptr %filename, i64 6
  %call2 = tail call i32 @strncmp(ptr noundef nonnull dereferenceable(1) %add.ptr, ptr noundef nonnull dereferenceable(6) @.str.612, i64 noundef 5) #31
  %tobool3.not = icmp eq i32 %call2, 0
  br i1 %tobool3.not, label %if.then4, label %if.else

if.then4:                                         ; preds = %if.then
  %add.ptr5 = getelementptr i8, ptr %filename, i64 11
  br label %if.end25

if.else:                                          ; preds = %if.then
  %0 = load i8, ptr %add.ptr, align 1
  %1 = add i8 %0, -49
  %or.cond = icmp ult i8 %1, 9
  br i1 %or.cond, label %if.then10, label %return

if.then10:                                        ; preds = %if.else
  %call11 = tail call i32 @getpid() #27
  %call12 = call i32 (ptr, i64, ptr, ...) @snprintf(ptr noundef nonnull dereferenceable(1) %myself, i64 noundef 80, ptr noundef nonnull @.str.613, i32 noundef %call11) #27
  %call15 = call i64 @strlen(ptr noundef nonnull dereferenceable(1) %myself) #31
  %call16 = call i32 @strncmp(ptr noundef nonnull %add.ptr, ptr noundef nonnull %myself, i64 noundef %call15) #31
  %tobool17.not = icmp eq i32 %call16, 0
  br i1 %tobool17.not, label %if.then18, label %return

if.then18:                                        ; preds = %if.then10
  %add.ptr21 = getelementptr i8, ptr %add.ptr, i64 %call15
  br label %if.end25

if.end25:                                         ; preds = %if.then18, %if.then4
  %filename.addr.0 = phi ptr [ %add.ptr21, %if.then18 ], [ %add.ptr5, %if.then4 ]
  %call26 = tail call i32 @strcmp(ptr noundef nonnull dereferenceable(1) %filename.addr.0, ptr noundef nonnull dereferenceable(1) %entry1) #31
  %tobool27.not = icmp eq i32 %call26, 0
  br i1 %tobool27.not, label %return, label %if.end30

if.end30:                                         ; preds = %if.end25, %entry
  br label %return

return:                                           ; preds = %if.end25, %if.else, %if.then10, %if.end30
  %retval.0 = phi i32 [ 0, %if.end30 ], [ 0, %if.then10 ], [ 0, %if.else ], [ 1, %if.end25 ]
  ret i32 %retval.0
}